; Function Attrs: mustprogress uwtable
define internal noundef nonnull ptr @_ZN7testing8internal15TestFactoryImplIN4absl12_GLOBAL__N_128BitGenRefTest_BasicTest_TestINS2_15random_internal17NonsecureURBGBaseINS5_10pcg_engineINS5_13pcg128_paramsILm2549297995355413924ELm4865540595714422341ELm6364136223846793005ELm1442695040888963407EEENS5_17pcg_xsl_rr_128_64EEENS5_17RandenPoolSeedSeqEEEEEE10CreateTestEv(ptr nocapture nonnull readnone align 8 %this) unnamed_addr #5 align 2 personality ptr @__gxx_personality_v0 {
entry:
  %call = tail call noalias noundef nonnull dereferenceable(16) ptr @_Znwm(i64 noundef 16) #23
  invoke void @_ZN7testing4TestC2Ev(ptr noundef nonnull align 8 dereferenceable(16) %call)
          to label %invoke.cont unwind label %lpad

invoke.cont:                                      ; preds = %entry
  store ptr getelementptr inbounds ({ [8 x ptr] }, ptr @_ZTVN4absl12_GLOBAL__N_128BitGenRefTest_BasicTest_TestINS_15random_internal17NonsecureURBGBaseINS2_10pcg_engineINS2_13pcg128_paramsILm2549297995355413924ELm4865540595714422341ELm6364136223846793005ELm1442695040888963407EEENS2_17pcg_xsl_rr_128_64EEENS2_17RandenPoolSeedSeqEEEEE, i64 0, i32 0, i64 2), ptr %call, align 8
  ret ptr %call

lpad:                                             ; preds = %entry
  %0 = landingpad { ptr, i32 }
          cleanup
  tail call void @_ZdlPv(ptr noundef nonnull %call) #24
  resume { ptr, i32 } %0
}